; Function Attrs: mustprogress uwtable
define dso_local void @_ZN3net14QuicSpdyStream18OnStreamHeaderListEbmRKNS_14QuicHeaderListE(ptr noundef nonnull align 8 dereferenceable(664) %this, i1 noundef zeroext %fin, i64 noundef %frame_len, ptr noundef nonnull align 8 dereferenceable(96) %header_list) unnamed_addr #0 align 2 {
entry:
  %headers_decompressed_ = getelementptr inbounds i8, ptr %this, i64 400
  %0 = load i8, ptr %headers_decompressed_, align 8
  %1 = and i8 %0, 1
  %tobool.not = icmp eq i8 %1, 0
  %vtable = load ptr, ptr %this, align 8
  %. = select i1 %tobool.not, i64 232, i64 240
  %vfn5 = getelementptr inbounds i8, ptr %vtable, i64 %.
  %2 = load ptr, ptr %vfn5, align 8
  tail call void %2(ptr noundef nonnull align 8 dereferenceable(664) %this, i1 noundef zeroext %fin, i64 noundef %frame_len, ptr noundef nonnull align 8 dereferenceable(96) %header_list)
  ret void
}